target datalayout = "e-m:e-p270:32:32-p271:32:32-p272:64:64-i64:64-i128:128-f80:128-n8:16:32:64-S128"
target triple = "x86_64-pc-linux-gnu"

@alarm_enabled = internal global i32 0, align 4

; Function Attrs: nounwind uwtable
define dso_local void @enable_timeout_after(i32 noundef %0, i32 noundef %1) #0 {
  %3 = alloca i32, align 4
  %4 = alloca i32, align 4
  %5 = alloca i64, align 8
  %6 = alloca i64, align 8
  store i32 %0, ptr %3, align 4
  store i32 %1, ptr %4, align 4
  call void @llvm.lifetime.start.p0(i64 8, ptr %5) #6
  call void @llvm.lifetime.start.p0(i64 8, ptr %6) #6
  store volatile i32 0, ptr @alarm_enabled, align 4
  %7 = call i64 @GetCurrentTimestamp()
  store i64 %7, ptr %5, align 8
  %8 = load i64, ptr %5, align 8
  %9 = load i32, ptr %4, align 4
  %10 = sext i32 %9 to i64
  %11 = mul i64 %10, 1000
  %12 = add i64 %8, %11
  store i64 %12, ptr %6, align 8
  %13 = load i32, ptr %3, align 4
  %14 = load i64, ptr %5, align 8
  %15 = load i64, ptr %6, align 8
  call void @enable_timeout(i32 noundef %13, i64 noundef %14, i64 noundef %15, i32 noundef 0)
  %16 = load i64, ptr %5, align 8
  call void @schedule_alarm(i64 noundef %16)
  call void @llvm.lifetime.end.p0(i64 8, ptr %6) #6
  call void @llvm.lifetime.end.p0(i64 8, ptr %5) #6
  ret void
}