; Function Attrs: nounwind uwtable
define dso_local void @enable_timeout_after(i32 noundef %0, i32 noundef %1) local_unnamed_addr #0 {
  store volatile i32 0, ptr @alarm_enabled, align 4
  %3 = tail call i64 @GetCurrentTimestamp() #10
  %4 = sext i32 %1 to i64
  %5 = mul nsw i64 %4, 1000
  %6 = add i64 %3, %5
  tail call fastcc void @enable_timeout(i32 noundef %0, i64 noundef %3, i64 noundef %6, i32 noundef 0)
  tail call fastcc void @schedule_alarm(i64 noundef %3)
  ret void
}